target datalayout = "e-m:e-p270:32:32-p271:32:32-p272:64:64-i64:64-i128:128-f80:128-n8:16:32:64-S128"
target triple = "x86_64-pc-linux-gnu"

%struct.rb_data_type_struct = type { ptr, %struct.anon, ptr, ptr, i64 }
%struct.anon = type { ptr, ptr, ptr, ptr, [1 x ptr] }
%struct.rb_stat = type { %struct.stat, i8 }
%struct.stat = type { i64, i64, i64, i32, i32, i32, i32, i64, i64, i64, i64, %struct.timespec, %struct.timespec, %struct.timespec, [3 x i64] }
%struct.timespec = type { i64, i64 }

@stat_data_type = internal constant %struct.rb_data_type_struct { ptr @.str.37, %struct.anon { ptr null, ptr inttoptr (i64 -1 to ptr), ptr null, ptr null, [1 x ptr] zeroinitializer }, ptr null, ptr null, i64 35 }, align 8
@rb_eTypeError = external global i64, align 8
@.str.147 = private unnamed_addr constant [25 x i8] c"uninitialized File::Stat\00", align 1

; Function Attrs: nounwind sspstrong uwtable
define internal i64 @stat_time(i64 %0, i64 %1) #0 {
  %3 = alloca %struct.timespec, align 8
  %4 = getelementptr inbounds nuw { i64, i64 }, ptr %3, i32 0, i32 0
  store i64 %0, ptr %4, align 8
  %5 = getelementptr inbounds nuw { i64, i64 }, ptr %3, i32 0, i32 1
  store i64 %1, ptr %5, align 8
  %6 = getelementptr inbounds nuw %struct.timespec, ptr %3, i32 0, i32 0
  %7 = load i64, ptr %6, align 8, !tbaa !155
  %8 = getelementptr inbounds nuw %struct.timespec, ptr %3, i32 0, i32 1
  %9 = load i64, ptr %8, align 8, !tbaa !156
  %10 = call i64 @rb_time_nano_new(i64 noundef %7, i64 noundef %9)
  ret i64 %10
}

; Function Attrs: nounwind sspstrong uwtable
define internal { i64, i64 } @stat_mtimespec(ptr noundef %0) #0 {
  %2 = alloca %struct.timespec, align 8
  %3 = alloca ptr, align 8
  store ptr %0, ptr %3, align 8, !tbaa !22
  %4 = load ptr, ptr %3, align 8, !tbaa !22
  %5 = getelementptr inbounds nuw %struct.stat, ptr %4, i32 0, i32 12
  %6 = getelementptr inbounds nuw %struct.timespec, ptr %5, i32 0, i32 0
  %7 = load i64, ptr %6, align 8, !tbaa !219
  %8 = getelementptr inbounds nuw %struct.timespec, ptr %2, i32 0, i32 0
  store i64 %7, ptr %8, align 8, !tbaa !155
  %9 = load ptr, ptr %3, align 8, !tbaa !22
  %10 = getelementptr inbounds nuw %struct.stat, ptr %9, i32 0, i32 12
  %11 = getelementptr inbounds nuw %struct.timespec, ptr %10, i32 0, i32 1
  %12 = load i64, ptr %11, align 8, !tbaa !220
  %13 = getelementptr inbounds nuw %struct.timespec, ptr %2, i32 0, i32 1
  store i64 %12, ptr %13, align 8, !tbaa !156
  %14 = load { i64, i64 }, ptr %2, align 8
  ret { i64, i64 } %14
}

; Function Attrs: nounwind sspstrong uwtable
define internal i64 @stat_mtime(ptr noundef %0) #0 {
  %2 = alloca ptr, align 8
  %3 = alloca %struct.timespec, align 8
  store ptr %0, ptr %2, align 8, !tbaa !22
  %4 = load ptr, ptr %2, align 8, !tbaa !22
  %5 = call { i64, i64 } @stat_mtimespec(ptr noundef %4)
  %6 = getelementptr inbounds nuw { i64, i64 }, ptr %3, i32 0, i32 0
  %7 = extractvalue { i64, i64 } %5, 0
  store i64 %7, ptr %6, align 8
  %8 = getelementptr inbounds nuw { i64, i64 }, ptr %3, i32 0, i32 1
  %9 = extractvalue { i64, i64 } %5, 1
  store i64 %9, ptr %8, align 8
  %10 = getelementptr inbounds nuw { i64, i64 }, ptr %3, i32 0, i32 0
  %11 = load i64, ptr %10, align 8
  %12 = getelementptr inbounds nuw { i64, i64 }, ptr %3, i32 0, i32 1
  %13 = load i64, ptr %12, align 8
  %14 = call i64 @stat_time(i64 %11, i64 %13)
  ret i64 %14
}

; Function Attrs: nounwind sspstrong uwtable
define internal ptr @get_stat(i64 noundef %0) #0 {
  %2 = alloca i64, align 8
  %3 = alloca ptr, align 8
  store i64 %0, ptr %2, align 8, !tbaa !7
  call void @llvm.lifetime.start.p0(i64 8, ptr %3) #24
  %4 = load i64, ptr %2, align 8, !tbaa !7
  %5 = call ptr @rb_check_typeddata(i64 noundef %4, ptr noundef @stat_data_type)
  store ptr %5, ptr %3, align 8, !tbaa !24
  %6 = load ptr, ptr %3, align 8, !tbaa !24
  %7 = getelementptr inbounds nuw %struct.rb_stat, ptr %6, i32 0, i32 1
  %8 = load i8, ptr %7, align 8, !tbaa !28, !range !164, !noundef !165
  %9 = trunc i8 %8 to i1
  br i1 %9, label %12, label %10

10:                                               ; preds = %1
  %11 = load i64, ptr @rb_eTypeError, align 8, !tbaa !7
  call void (i64, ptr, ...) @rb_raise(i64 noundef %11, ptr noundef @.str.147) #28
  unreachable

12:                                               ; preds = %1
  %13 = load ptr, ptr %3, align 8, !tbaa !24
  %14 = getelementptr inbounds nuw %struct.rb_stat, ptr %13, i32 0, i32 0
  call void @llvm.lifetime.end.p0(i64 8, ptr %3) #24
  ret ptr %14
}

; Function Attrs: nounwind sspstrong uwtable
define internal i64 @rb_stat_mtime(i64 noundef %0) #0 {
  %2 = alloca i64, align 8
  store i64 %0, ptr %2, align 8, !tbaa !7
  %3 = load i64, ptr %2, align 8, !tbaa !7
  %4 = call ptr @get_stat(i64 noundef %3)
  %5 = call i64 @stat_mtime(ptr noundef %4)
  ret i64 %5
}